target datalayout = "e-m:e-p270:32:32-p271:32:32-p272:64:64-i64:64-i128:128-f80:128-n8:16:32:64-S128"
target triple = "x86_64-pc-linux-gnu"

%struct.H5B2_node_info_test_t = type { i16, i16 }

@H5B2_init_g = external global i8, align 1
@H5_libterm_g = external global i8, align 1
@.str.2 = private unnamed_addr constant [102 x i8] c"generated/home/dtcxzyw/WorkSpace/Projects/compilers/llvm-opt-benchmark/bench/hdf5/hdf5/src/H5B2test.c\00", align 1
@H5E_BTREE_g = external global i64, align 8
@H5E_NOTFOUND_g = external global i64, align 8
@__func__.H5B2__get_node_depth_test = private unnamed_addr constant [26 x i8] c"H5B2__get_node_depth_test\00", align 1
@.str.10 = private unnamed_addr constant [27 x i8] c"error looking up node info\00", align 1

; Function Attrs: nounwind uwtable
define i32 @H5B2__get_node_depth_test(ptr noundef %0, ptr noundef %1) #0 {
  %3 = alloca ptr, align 8
  %4 = alloca ptr, align 8
  %5 = alloca %struct.H5B2_node_info_test_t, align 2
  %6 = alloca i32, align 4
  %7 = alloca i8, align 1
  store ptr %0, ptr %3, align 8, !tbaa !42
  store ptr %1, ptr %4, align 8, !tbaa !3
  call void @llvm.lifetime.start.p0(i64 4, ptr %5) #6
  call void @llvm.lifetime.start.p0(i64 4, ptr %6) #6
  store i32 -1, ptr %6, align 4, !tbaa !21
  call void @llvm.lifetime.start.p0(i64 1, ptr %7) #6
  store i8 0, ptr %7, align 1, !tbaa !9
  %8 = load i8, ptr @H5B2_init_g, align 1, !tbaa !9, !range !11, !noundef !12
  %9 = trunc i8 %8 to i1
  br i1 %9, label %14, label %10

10:                                               ; preds = %2
  %11 = load i8, ptr @H5_libterm_g, align 1, !tbaa !9, !range !11, !noundef !12
  %12 = trunc i8 %11 to i1
  %13 = xor i1 %12, true
  br label %14

14:                                               ; preds = %10, %2
  %15 = phi i1 [ true, %2 ], [ %13, %10 ]
  %16 = xor i1 %15, true
  %17 = xor i1 %16, true
  %18 = zext i1 %17 to i32
  %19 = sext i32 %18 to i64
  %20 = call i64 @llvm.expect.i64(i64 %19, i64 1)
  %21 = icmp ne i64 %20, 0
  br i1 %21, label %22, label %51

22:                                               ; preds = %14
  %23 = load ptr, ptr %3, align 8, !tbaa !42
  %24 = load ptr, ptr %4, align 8, !tbaa !3
  %25 = call i32 @H5B2__get_node_info_test(ptr noundef %23, ptr noundef %24, ptr noundef %5)
  %26 = icmp slt i32 %25, 0
  br i1 %26, label %27, label %46

27:                                               ; preds = %22
  br label %28

28:                                               ; preds = %27
  br label %29

29:                                               ; preds = %28
  br label %30

30:                                               ; preds = %29
  %31 = load i64, ptr @H5E_BTREE_g, align 8, !tbaa !15
  %32 = load i64, ptr @H5E_NOTFOUND_g, align 8, !tbaa !15
  %33 = call i32 (ptr, ptr, i32, i64, i64, ptr, ...) @H5E_printf_stack(ptr noundef @.str.2, ptr noundef @__func__.H5B2__get_node_depth_test, i32 noundef 604, i64 noundef %31, i64 noundef %32, ptr noundef @.str.10)
  br label %34

34:                                               ; preds = %30
  br label %35

35:                                               ; preds = %34
  store i8 1, ptr %7, align 1, !tbaa !9
  %36 = load i8, ptr %7, align 1, !tbaa !9, !range !11, !noundef !12
  %37 = trunc i8 %36 to i1
  %38 = zext i1 %37 to i8
  store i8 %38, ptr %7, align 1, !tbaa !9
  br label %39

39:                                               ; preds = %35
  br label %40

40:                                               ; preds = %39
  br label %41

41:                                               ; preds = %40
  store i32 -1, ptr %6, align 4, !tbaa !21
  br label %50

42:                                               ; No predecessors!
  br label %43

43:                                               ; preds = %42
  br label %44

44:                                               ; preds = %43
  br label %45

45:                                               ; preds = %44
  br label %46

46:                                               ; preds = %45, %22
  %47 = getelementptr inbounds nuw %struct.H5B2_node_info_test_t, ptr %5, i32 0, i32 0
  %48 = load i16, ptr %47, align 2, !tbaa !80
  %49 = zext i16 %48 to i32
  store i32 %49, ptr %6, align 4, !tbaa !21
  br label %50

50:                                               ; preds = %46, %41
  br label %51

51:                                               ; preds = %50, %14
  %52 = load i32, ptr %6, align 4, !tbaa !21
  call void @llvm.lifetime.end.p0(i64 1, ptr %7) #6
  call void @llvm.lifetime.end.p0(i64 4, ptr %6) #6
  call void @llvm.lifetime.end.p0(i64 4, ptr %5) #6
  ret i32 %52
}