; Function Attrs: nounwind uwtable
define range(i32 -1, 65536) i32 @H5B2__get_node_depth_test(ptr noundef readonly captures(none) %0, ptr noundef %1) local_unnamed_addr #0 {
  %3 = alloca %struct.H5B2_node_info_test_t, align 2
  call void @llvm.lifetime.start.p0(i64 4, ptr nonnull %3) #8
  %4 = load i8, ptr @H5B2_init_g, align 1, !tbaa !3, !range !7, !noundef !8
  %5 = trunc nuw i8 %4 to i1
  %6 = load i8, ptr @H5_libterm_g, align 1, !range !7
  %7 = trunc nuw i8 %6 to i1
  %8 = xor i1 %7, true
  %9 = select i1 %5, i1 true, i1 %8
  br i1 %9, label %10, label %20, !prof !9

10:                                               ; preds = %2
  %11 = call i32 @H5B2__get_node_info_test(ptr noundef %0, ptr noundef %1, ptr noundef nonnull %3)
  %12 = icmp slt i32 %11, 0
  br i1 %12, label %13, label %17

13:                                               ; preds = %10
  %14 = load i64, ptr @H5E_BTREE_g, align 8, !tbaa !10
  %15 = load i64, ptr @H5E_NOTFOUND_g, align 8, !tbaa !10
  %16 = tail call i32 (ptr, ptr, i32, i64, i64, ptr, ...) @H5E_printf_stack(ptr noundef nonnull @.str.2, ptr noundef nonnull @__func__.H5B2__get_node_depth_test, i32 noundef 604, i64 noundef %14, i64 noundef %15, ptr noundef nonnull @.str.10) #8
  br label %20

17:                                               ; preds = %10
  %18 = load i16, ptr %3, align 2, !tbaa !61
  %19 = zext i16 %18 to i32
  br label %20

20:                                               ; preds = %13, %17, %2
  %.0 = phi i32 [ -1, %13 ], [ %19, %17 ], [ -1, %2 ]
  call void @llvm.lifetime.end.p0(i64 4, ptr nonnull %3) #8
  ret i32 %.0
}